; Function Attrs: nounwind uwtable
define ptr @l_Lean_PersistentArray_forIn___at_Lean_Elab_WF_GuessLex_complexMeasures___spec__5___boxed(ptr noundef %0, ptr noundef %1, ptr noundef %2, ptr noundef %3, ptr noundef %4, ptr noundef %5, ptr noundef %6, ptr noundef %7, ptr noundef %8, ptr noundef %9, ptr noundef %10) local_unnamed_addr #1 {
  %12 = getelementptr i8, ptr %1, i64 8
  %.val = load i64, ptr %12, align 8, !tbaa !12
  %13 = ptrtoint ptr %1 to i64
  %14 = and i64 %13, 1
  %.not = icmp eq i64 %14, 0
  br i1 %.not, label %15, label %lean_dec.exit20

15:                                               ; preds = %11
  %16 = load i32, ptr %1, align 4, !tbaa !8
  %17 = icmp sgt i32 %16, 1
  br i1 %17, label %18, label %20, !prof !11

18:                                               ; preds = %15
  %19 = add nsw i32 %16, -1
  store i32 %19, ptr %1, align 4, !tbaa !8
  br label %lean_dec.exit20

20:                                               ; preds = %15
  %.not.i = icmp eq i32 %16, 0
  br i1 %.not.i, label %lean_dec.exit20, label %21

21:                                               ; preds = %20
  tail call void @lean_dec_ref_cold(ptr noundef nonnull %1) #8
  br label %lean_dec.exit20

lean_dec.exit20:                                  ; preds = %21, %20, %18, %11
  %22 = tail call ptr @l_Lean_PersistentArray_forIn___at_Lean_Elab_WF_GuessLex_complexMeasures___spec__5(ptr noundef %0, i64 noundef %.val, ptr noundef %2, ptr noundef %3, ptr noundef %4, ptr noundef %5, ptr noundef %6, ptr noundef %7, ptr noundef %8, ptr noundef %9, ptr noundef %10)
  %23 = ptrtoint ptr %4 to i64
  %24 = and i64 %23, 1
  %.not29 = icmp eq i64 %24, 0
  br i1 %.not29, label %25, label %lean_dec.exit19

25:                                               ; preds = %lean_dec.exit20
  %26 = load i32, ptr %4, align 4, !tbaa !8
  %27 = icmp sgt i32 %26, 1
  br i1 %27, label %28, label %30, !prof !11

28:                                               ; preds = %25
  %29 = add nsw i32 %26, -1
  store i32 %29, ptr %4, align 4, !tbaa !8
  br label %lean_dec.exit19

30:                                               ; preds = %25
  %.not.i21 = icmp eq i32 %26, 0
  br i1 %.not.i21, label %lean_dec.exit19, label %31

31:                                               ; preds = %30
  tail call void @lean_dec_ref_cold(ptr noundef nonnull %4) #8
  br label %lean_dec.exit19

lean_dec.exit19:                                  ; preds = %31, %30, %28, %lean_dec.exit20
  %32 = ptrtoint ptr %3 to i64
  %33 = and i64 %32, 1
  %.not30 = icmp eq i64 %33, 0
  br i1 %.not30, label %34, label %lean_dec.exit18

34:                                               ; preds = %lean_dec.exit19
  %35 = load i32, ptr %3, align 4, !tbaa !8
  %36 = icmp sgt i32 %35, 1
  br i1 %36, label %37, label %39, !prof !11

37:                                               ; preds = %34
  %38 = add nsw i32 %35, -1
  store i32 %38, ptr %3, align 4, !tbaa !8
  br label %lean_dec.exit18

39:                                               ; preds = %34
  %.not.i23 = icmp eq i32 %35, 0
  br i1 %.not.i23, label %lean_dec.exit18, label %40

40:                                               ; preds = %39
  tail call void @lean_dec_ref_cold(ptr noundef nonnull %3) #8
  br label %lean_dec.exit18

lean_dec.exit18:                                  ; preds = %40, %39, %37, %lean_dec.exit19
  %41 = ptrtoint ptr %2 to i64
  %42 = and i64 %41, 1
  %.not31 = icmp eq i64 %42, 0
  br i1 %.not31, label %43, label %lean_dec.exit17

43:                                               ; preds = %lean_dec.exit18
  %44 = load i32, ptr %2, align 4, !tbaa !8
  %45 = icmp sgt i32 %44, 1
  br i1 %45, label %46, label %48, !prof !11

46:                                               ; preds = %43
  %47 = add nsw i32 %44, -1
  store i32 %47, ptr %2, align 4, !tbaa !8
  br label %lean_dec.exit17

48:                                               ; preds = %43
  %.not.i25 = icmp eq i32 %44, 0
  br i1 %.not.i25, label %lean_dec.exit17, label %49

49:                                               ; preds = %48
  tail call void @lean_dec_ref_cold(ptr noundef nonnull %2) #8
  br label %lean_dec.exit17

lean_dec.exit17:                                  ; preds = %49, %48, %46, %lean_dec.exit18
  %50 = ptrtoint ptr %0 to i64
  %51 = and i64 %50, 1
  %.not32 = icmp eq i64 %51, 0
  br i1 %.not32, label %52, label %lean_dec.exit

52:                                               ; preds = %lean_dec.exit17
  %53 = load i32, ptr %0, align 4, !tbaa !8
  %54 = icmp sgt i32 %53, 1
  br i1 %54, label %55, label %57, !prof !11

55:                                               ; preds = %52
  %56 = add nsw i32 %53, -1
  store i32 %56, ptr %0, align 4, !tbaa !8
  br label %lean_dec.exit

57:                                               ; preds = %52
  %.not.i27 = icmp eq i32 %53, 0
  br i1 %.not.i27, label %lean_dec.exit, label %58

58:                                               ; preds = %57
  tail call void @lean_dec_ref_cold(ptr noundef nonnull %0) #8
  br label %lean_dec.exit

lean_dec.exit:                                    ; preds = %58, %57, %55, %lean_dec.exit17
  ret ptr %22
}